(lp0
(i__main__
Workspace
p1
(dp2
S'path'
p3
S'/opt/lampp'
p4
sS'metaData'
p5
S'TestData1'
p6
sba(i__main__
Workspace
p7
(dp8
g3
S'/opt/lampp/htdocs'
p9
sg5
S'TestData2'
p10
sba(i__main__
Workspace
p11
(dp12
g3
S'/home'
p13
sg5
S'TestData3'
p14
sba.